(dp1
S'kuuga'
p2
(dp3
S'Paris'
p4
F9.0999999999999996
sS'forest gump'
p5
F8
sS'god father'
p6
F8
sS'comedy'
p7
F7
sS'chow'
p8
F8.4000000000000004
ssS'hyt'
p9
(dp10
g5
F9
sg6
F9.5
sg8
F9
sg7
F7.5
sS'chunking'
p11
F7.5
ssS'cla'
p12
(dp13
g5
F8.8000000000000007
sg4
F9
sg11
F8
sg8
F8.5
sg7
F6
sS'god http://www.baidu.com/father'
p14
F8.5999999999999996
ssS'lee'
p15
(dp16
g5
F8.0999999999999996
sg6
F8.8000000000000007
sg8
F7.7999999999999998
sg11
F9
ss.